target datalayout = "e-m:e-p270:32:32-p271:32:32-p272:64:64-i64:64-i128:128-f80:128-n8:16:32:64-S128"
target triple = "x86_64-pc-linux-gnu"

%struct.redisServer = type { i32, i64, ptr, ptr, ptr, i32, i32, i32, i32, i32, ptr, ptr, ptr, ptr, ptr, i32, i32, i32, i32, i64, i32, i32, i32, i32, ptr, i32, i32, [41 x i8], i32, i64, i32, i32, i32, ptr, ptr, i32, i32, i64, ptr, ptr, ptr, ptr, [2 x i32], i32, i32, i32, i32, i32, i32, [16 x ptr], i32, ptr, ptr, i32, [8 x %struct.connListener], i32, %struct.connListener, ptr, ptr, ptr, ptr, ptr, ptr, ptr, ptr, ptr, ptr, i32, ptr, i32, ptr, [3 x %struct.pause_event], [256 x i8], ptr, i64, i32, i32, [128 x i32], i32, i32, i64, i32, i32, i32, i32, i32, i64, i64, i64, i64, i64, i64, i64, i64, i64, i64, double, i64, i64, i64, i64, i64, i64, i64, i64, i64, i64, i64, i64, i64, i64, i64, i64, i64, i64, i64, i64, i64, double, i64, i64, i64, i64, i64, ptr, i64, i64, i64, %struct.malloc_stats, i64, i64, i64, i64, i64, i64, i64, i64, i64, i64, i64, i64, double, [4 x i64], i64, i64, i64, i64, [128 x i64], [128 x i64], i64, i64, [7 x %struct.anon], i64, i64, i64, i64, i64, i64, [4 x %struct.durationStats], i32, i32, i32, i32, i32, i32, i32, i32, i32, i32, i32, i32, i64, i32, i32, i32, i32, i64, i64, i32, i32, i32, i32, i32, ptr, [3 x %struct.clientBufferLimitsConfig], i32, i32, i32, ptr, i32, i32, i32, i32, i32, i32, ptr, ptr, i32, i32, i64, i64, i64, i64, i64, i32, i32, ptr, i32, i32, i64, i64, i64, i64, i64, i32, i32, i64, i32, i32, i32, i32, i32, i32, i32, i32, ptr, i32, i64, i64, i64, i64, i32, ptr, i32, ptr, i32, i32, i32, i64, i64, i64, i64, i32, i32, i32, i32, i32, i32, ptr, i32, i32, ptr, i32, i32, i32, [2 x i32], i32, %struct.redisOpArray, i32, ptr, i32, ptr, i32, i32, i32, i32, i32, i32, i32, [41 x i8], [41 x i8], i64, i64, i64, i64, i32, i32, ptr, i64, i64, %struct.replDataBuf, i64, i64, i32, i32, i32, i32, i32, i32, i32, i32, i32, i64, ptr, i64, ptr, ptr, ptr, i32, i32, ptr, ptr, i32, i32, i32, i64, i64, i64, i64, ptr, ptr, i32, ptr, i64, i32, i32, i32, i64, i32, i32, i32, i32, ptr, i32, i32, [41 x i8], i64, i32, ptr, i32, i32, i64, i64, i32, i32, i32, i32, i32, i64, [3 x i32], i32, i32, i32, [10 x i32], ptr, ptr, i32, i64, ptr, ptr, i32, i32, i32, i32, i64, i64, i64, i64, i64, i64, i64, i64, i64, i64, i32, i32, i64, i64, i32, i64, i64, i64, i64, i64, ptr, ptr, i32, ptr, i32, i32, i32, i32, i64, i64, ptr, ptr, i32, i32, i32, i32, i32, ptr, ptr, ptr, i32, i32, i32, i32, i32, i32, i32, i64, i32, i32, i64, i32, i32, i32, i32, i32, i32, i32, i64, ptr, ptr, i64, ptr, i32, %struct.aclInfo, i32, i64, i32, i32, i32, %struct.redisTLSContextConfig, ptr, ptr, ptr, ptr, ptr, i64, i32, ptr, i32, i32, i32, i64, i32, ptr }
%struct.connListener = type { [16 x i32], i32, ptr, i32, i32, ptr, ptr }
%struct.pause_event = type { i32, i64 }
%struct.malloc_stats = type { i64, i64, i64, i64, i64, i64, i64, i64, i64, i64, i64 }
%struct.anon = type { i64, i64, [16 x i64], i32 }
%struct.durationStats = type { i64, i64, i64 }
%struct.clientBufferLimitsConfig = type { i64, i64, i64 }
%struct.redisOpArray = type { ptr, i32, i32 }
%struct.replDataBuf = type { ptr, i64, i64, i64, i64 }
%struct.aclInfo = type { i64, i64, i64, i64 }
%struct.redisTLSContextConfig = type { ptr, ptr, ptr, ptr, ptr, ptr, ptr, ptr, ptr, ptr, ptr, ptr, i32, i32, i32, i32 }
%struct.aclSelector = type { i32, [16 x i64], ptr, ptr, ptr, ptr }
%struct.list = type { ptr, ptr, ptr, ptr, ptr, i64 }
%struct.sdshdr8 = type { i8, i8, i8, [0 x i8] }
%struct.sdshdr16 = type <{ i16, i16, i8, [0 x i8] }>
%struct.sdshdr32 = type <{ i32, i32, i8, [0 x i8] }>
%struct.sdshdr64 = type <{ i64, i64, i8, [0 x i8] }>

@.str.22 = private unnamed_addr constant [6 x i8] c"acl.c\00", align 1
@server = external global %struct.redisServer, align 8
@.str.60 = private unnamed_addr constant [46 x i8] c"opset[0] == '(' && opset[opsetlen - 1] == ')'\00", align 1

; Function Attrs: inlinehint nounwind uwtable
define internal i64 @sdslen(ptr noundef %0) #11 {
  %2 = alloca i64, align 8
  %3 = alloca ptr, align 8
  %4 = alloca i8, align 1
  %5 = alloca i32, align 4
  store ptr %0, ptr %3, align 8, !tbaa !5
  call void @llvm.lifetime.start.p0(i64 1, ptr %4) #14
  %6 = load ptr, ptr %3, align 8, !tbaa !5
  %7 = getelementptr inbounds i8, ptr %6, i64 -1
  %8 = load i8, ptr %7, align 1, !tbaa !22
  store i8 %8, ptr %4, align 1, !tbaa !22
  %9 = load i8, ptr %4, align 1, !tbaa !22
  %10 = zext i8 %9 to i32
  %11 = and i32 %10, 7
  switch i32 %11, label %40 [
    i32 0, label %12
    i32 1, label %17
    i32 2, label %23
    i32 3, label %29
    i32 4, label %35
  ]

12:                                               ; preds = %1
  %13 = load i8, ptr %4, align 1, !tbaa !22
  %14 = zext i8 %13 to i32
  %15 = ashr i32 %14, 3
  %16 = sext i32 %15 to i64
  store i64 %16, ptr %2, align 8
  store i32 1, ptr %5, align 4
  br label %41

17:                                               ; preds = %1
  %18 = load ptr, ptr %3, align 8, !tbaa !5
  %19 = getelementptr inbounds i8, ptr %18, i64 -3
  %20 = getelementptr inbounds nuw %struct.sdshdr8, ptr %19, i32 0, i32 0
  %21 = load i8, ptr %20, align 1, !tbaa !22
  %22 = zext i8 %21 to i64
  store i64 %22, ptr %2, align 8
  store i32 1, ptr %5, align 4
  br label %41

23:                                               ; preds = %1
  %24 = load ptr, ptr %3, align 8, !tbaa !5
  %25 = getelementptr inbounds i8, ptr %24, i64 -5
  %26 = getelementptr inbounds nuw %struct.sdshdr16, ptr %25, i32 0, i32 0
  %27 = load i16, ptr %26, align 1, !tbaa !28
  %28 = zext i16 %27 to i64
  store i64 %28, ptr %2, align 8
  store i32 1, ptr %5, align 4
  br label %41

29:                                               ; preds = %1
  %30 = load ptr, ptr %3, align 8, !tbaa !5
  %31 = getelementptr inbounds i8, ptr %30, i64 -9
  %32 = getelementptr inbounds nuw %struct.sdshdr32, ptr %31, i32 0, i32 0
  %33 = load i32, ptr %32, align 1, !tbaa !17
  %34 = zext i32 %33 to i64
  store i64 %34, ptr %2, align 8
  store i32 1, ptr %5, align 4
  br label %41

35:                                               ; preds = %1
  %36 = load ptr, ptr %3, align 8, !tbaa !5
  %37 = getelementptr inbounds i8, ptr %36, i64 -17
  %38 = getelementptr inbounds nuw %struct.sdshdr64, ptr %37, i32 0, i32 0
  %39 = load i64, ptr %38, align 1, !tbaa !10
  store i64 %39, ptr %2, align 8
  store i32 1, ptr %5, align 4
  br label %41

40:                                               ; preds = %1
  store i64 0, ptr %2, align 8
  store i32 1, ptr %5, align 4
  br label %41

41:                                               ; preds = %40, %35, %29, %23, %17, %12
  call void @llvm.lifetime.end.p0(i64 1, ptr %4) #14
  %42 = load i64, ptr %2, align 8
  ret i64 %42
}

; Function Attrs: nounwind uwtable
define dso_local ptr @ACLCreateSelector(i32 noundef %0) #0 {
  %2 = alloca i32, align 4
  %3 = alloca ptr, align 8
  store i32 %0, ptr %2, align 4, !tbaa !17
  call void @llvm.lifetime.start.p0(i64 8, ptr %3) #14
  %4 = call noalias ptr @zmalloc(i64 noundef 168) #13
  store ptr %4, ptr %3, align 8, !tbaa !32
  %5 = load i32, ptr %2, align 4, !tbaa !17
  %6 = load i32, ptr getelementptr inbounds nuw (%struct.redisServer, ptr @server, i32 0, i32 417), align 8, !tbaa !38
  %7 = or i32 %5, %6
  %8 = load ptr, ptr %3, align 8, !tbaa !32
  %9 = getelementptr inbounds nuw %struct.aclSelector, ptr %8, i32 0, i32 0
  store i32 %7, ptr %9, align 8, !tbaa !64
  %10 = call ptr @listCreate()
  %11 = load ptr, ptr %3, align 8, !tbaa !32
  %12 = getelementptr inbounds nuw %struct.aclSelector, ptr %11, i32 0, i32 3
  store ptr %10, ptr %12, align 8, !tbaa !67
  %13 = call ptr @listCreate()
  %14 = load ptr, ptr %3, align 8, !tbaa !32
  %15 = getelementptr inbounds nuw %struct.aclSelector, ptr %14, i32 0, i32 4
  store ptr %13, ptr %15, align 8, !tbaa !68
  %16 = load ptr, ptr %3, align 8, !tbaa !32
  %17 = getelementptr inbounds nuw %struct.aclSelector, ptr %16, i32 0, i32 2
  store ptr null, ptr %17, align 8, !tbaa !69
  %18 = call ptr @sdsempty()
  %19 = load ptr, ptr %3, align 8, !tbaa !32
  %20 = getelementptr inbounds nuw %struct.aclSelector, ptr %19, i32 0, i32 5
  store ptr %18, ptr %20, align 8, !tbaa !70
  %21 = load ptr, ptr %3, align 8, !tbaa !32
  %22 = getelementptr inbounds nuw %struct.aclSelector, ptr %21, i32 0, i32 3
  %23 = load ptr, ptr %22, align 8, !tbaa !67
  %24 = getelementptr inbounds nuw %struct.list, ptr %23, i32 0, i32 4
  store ptr @ACLListMatchKeyPattern, ptr %24, align 8, !tbaa !71
  %25 = load ptr, ptr %3, align 8, !tbaa !32
  %26 = getelementptr inbounds nuw %struct.aclSelector, ptr %25, i32 0, i32 3
  %27 = load ptr, ptr %26, align 8, !tbaa !67
  %28 = getelementptr inbounds nuw %struct.list, ptr %27, i32 0, i32 3
  store ptr @ACLListFreeKeyPattern, ptr %28, align 8, !tbaa !74
  %29 = load ptr, ptr %3, align 8, !tbaa !32
  %30 = getelementptr inbounds nuw %struct.aclSelector, ptr %29, i32 0, i32 3
  %31 = load ptr, ptr %30, align 8, !tbaa !67
  %32 = getelementptr inbounds nuw %struct.list, ptr %31, i32 0, i32 2
  store ptr @ACLListDupKeyPattern, ptr %32, align 8, !tbaa !75
  %33 = load ptr, ptr %3, align 8, !tbaa !32
  %34 = getelementptr inbounds nuw %struct.aclSelector, ptr %33, i32 0, i32 4
  %35 = load ptr, ptr %34, align 8, !tbaa !68
  %36 = getelementptr inbounds nuw %struct.list, ptr %35, i32 0, i32 4
  store ptr @ACLListMatchSds, ptr %36, align 8, !tbaa !71
  %37 = load ptr, ptr %3, align 8, !tbaa !32
  %38 = getelementptr inbounds nuw %struct.aclSelector, ptr %37, i32 0, i32 4
  %39 = load ptr, ptr %38, align 8, !tbaa !68
  %40 = getelementptr inbounds nuw %struct.list, ptr %39, i32 0, i32 3
  store ptr @ACLListFreeSds, ptr %40, align 8, !tbaa !74
  %41 = load ptr, ptr %3, align 8, !tbaa !32
  %42 = getelementptr inbounds nuw %struct.aclSelector, ptr %41, i32 0, i32 4
  %43 = load ptr, ptr %42, align 8, !tbaa !68
  %44 = getelementptr inbounds nuw %struct.list, ptr %43, i32 0, i32 2
  store ptr @ACLListDupSds, ptr %44, align 8, !tbaa !75
  %45 = load ptr, ptr %3, align 8, !tbaa !32
  %46 = getelementptr inbounds nuw %struct.aclSelector, ptr %45, i32 0, i32 1
  %47 = getelementptr inbounds [16 x i64], ptr %46, i64 0, i64 0
  call void @llvm.memset.p0.i64(ptr align 8 %47, i8 0, i64 128, i1 false)
  %48 = load ptr, ptr %3, align 8, !tbaa !32
  call void @llvm.lifetime.end.p0(i64 8, ptr %3) #14
  ret ptr %48
}

; Function Attrs: nounwind uwtable
define dso_local ptr @aclCreateSelectorFromOpSet(ptr noundef %0, i64 noundef %1) #0 {
  %3 = alloca ptr, align 8
  %4 = alloca ptr, align 8
  %5 = alloca i64, align 8
  %6 = alloca ptr, align 8
  %7 = alloca i32, align 4
  %8 = alloca ptr, align 8
  %9 = alloca ptr, align 8
  %10 = alloca i32, align 4
  %11 = alloca i32, align 4
  store ptr %0, ptr %4, align 8, !tbaa !5
  store i64 %1, ptr %5, align 8, !tbaa !10
  %12 = load ptr, ptr %4, align 8, !tbaa !5
  %13 = getelementptr inbounds i8, ptr %12, i64 0
  %14 = load i8, ptr %13, align 1, !tbaa !22
  %15 = sext i8 %14 to i32
  %16 = icmp eq i32 %15, 40
  br i1 %16, label %17, label %25

17:                                               ; preds = %2
  %18 = load ptr, ptr %4, align 8, !tbaa !5
  %19 = load i64, ptr %5, align 8, !tbaa !10
  %20 = sub i64 %19, 1
  %21 = getelementptr inbounds nuw i8, ptr %18, i64 %20
  %22 = load i8, ptr %21, align 1, !tbaa !22
  %23 = sext i8 %22 to i32
  %24 = icmp eq i32 %23, 41
  br label %25

25:                                               ; preds = %17, %2
  %26 = phi i1 [ false, %2 ], [ %24, %17 ]
  %27 = xor i1 %26, true
  %28 = xor i1 %27, true
  %29 = zext i1 %28 to i32
  %30 = sext i32 %29 to i64
  %31 = call i64 @llvm.expect.i64(i64 %30, i64 1)
  %32 = icmp ne i64 %31, 0
  br i1 %32, label %33, label %34

33:                                               ; preds = %25
  br label %36

34:                                               ; preds = %25
  call void @_serverAssert(ptr noundef @.str.60, ptr noundef @.str.22, i32 noundef 974)
  call void @abort() #15
  unreachable

35:                                               ; No predecessors!
  br label %36

36:                                               ; preds = %35, %33
  call void @llvm.lifetime.start.p0(i64 8, ptr %6) #14
  %37 = call ptr @ACLCreateSelector(i32 noundef 0)
  store ptr %37, ptr %6, align 8, !tbaa !32
  call void @llvm.lifetime.start.p0(i64 4, ptr %7) #14
  store i32 0, ptr %7, align 4, !tbaa !17
  call void @llvm.lifetime.start.p0(i64 8, ptr %8) #14
  %38 = load ptr, ptr %4, align 8, !tbaa !5
  %39 = getelementptr inbounds i8, ptr %38, i64 1
  %40 = load i64, ptr %5, align 8, !tbaa !10
  %41 = sub i64 %40, 2
  %42 = call ptr @sdsnewlen(ptr noundef %39, i64 noundef %41)
  store ptr %42, ptr %8, align 8, !tbaa !5
  call void @llvm.lifetime.start.p0(i64 8, ptr %9) #14
  %43 = load ptr, ptr %8, align 8, !tbaa !5
  %44 = call ptr @sdssplitargs(ptr noundef %43, ptr noundef %7)
  store ptr %44, ptr %9, align 8, !tbaa !33
  call void @llvm.lifetime.start.p0(i64 4, ptr %10) #14
  store i32 0, ptr %10, align 4, !tbaa !17
  br label %45

45:                                               ; preds = %68, %36
  %46 = load i32, ptr %10, align 4, !tbaa !17
  %47 = load i32, ptr %7, align 4, !tbaa !17
  %48 = icmp slt i32 %46, %47
  br i1 %48, label %50, label %49

49:                                               ; preds = %45
  store i32 2, ptr %11, align 4
  br label %71

50:                                               ; preds = %45
  %51 = load ptr, ptr %6, align 8, !tbaa !32
  %52 = load ptr, ptr %9, align 8, !tbaa !33
  %53 = load i32, ptr %10, align 4, !tbaa !17
  %54 = sext i32 %53 to i64
  %55 = getelementptr inbounds ptr, ptr %52, i64 %54
  %56 = load ptr, ptr %55, align 8, !tbaa !5
  %57 = load ptr, ptr %9, align 8, !tbaa !33
  %58 = load i32, ptr %10, align 4, !tbaa !17
  %59 = sext i32 %58 to i64
  %60 = getelementptr inbounds ptr, ptr %57, i64 %59
  %61 = load ptr, ptr %60, align 8, !tbaa !5
  %62 = call i64 @sdslen(ptr noundef %61)
  %63 = call i32 @ACLSetSelector(ptr noundef %51, ptr noundef %56, i64 noundef %62)
  %64 = icmp eq i32 %63, -1
  br i1 %64, label %65, label %67

65:                                               ; preds = %50
  %66 = load ptr, ptr %6, align 8, !tbaa !32
  call void @ACLFreeSelector(ptr noundef %66)
  store ptr null, ptr %6, align 8, !tbaa !32
  store i32 5, ptr %11, align 4
  br label %71

67:                                               ; preds = %50
  br label %68

68:                                               ; preds = %67
  %69 = load i32, ptr %10, align 4, !tbaa !17
  %70 = add nsw i32 %69, 1
  store i32 %70, ptr %10, align 4, !tbaa !17
  br label %45, !llvm.loop !148

71:                                               ; preds = %65, %49
  call void @llvm.lifetime.end.p0(i64 4, ptr %10) #14
  %72 = load i32, ptr %11, align 4
  switch i32 %72, label %79 [
    i32 2, label %73
    i32 5, label %74
  ]

73:                                               ; preds = %71
  br label %74

74:                                               ; preds = %73, %71
  %75 = load ptr, ptr %9, align 8, !tbaa !33
  %76 = load i32, ptr %7, align 4, !tbaa !17
  call void @sdsfreesplitres(ptr noundef %75, i32 noundef %76)
  %77 = load ptr, ptr %8, align 8, !tbaa !5
  call void @sdsfree(ptr noundef %77)
  %78 = load ptr, ptr %6, align 8, !tbaa !32
  store ptr %78, ptr %3, align 8
  store i32 1, ptr %11, align 4
  br label %79

79:                                               ; preds = %74, %71
  call void @llvm.lifetime.end.p0(i64 8, ptr %9) #14
  call void @llvm.lifetime.end.p0(i64 8, ptr %8) #14
  call void @llvm.lifetime.end.p0(i64 4, ptr %7) #14
  call void @llvm.lifetime.end.p0(i64 8, ptr %6) #14
  %80 = load ptr, ptr %3, align 8
  ret ptr %80
}