; Function Attrs: nounwind uwtable
define dso_local noundef ptr @aclCreateSelectorFromOpSet(ptr noundef %0, i64 noundef %1) local_unnamed_addr #0 {
  %3 = alloca i32, align 4
  %4 = load i8, ptr %0, align 1, !tbaa !19
  %5 = icmp eq i8 %4, 40
  br i1 %5, label %6, label %.critedge, !prof !119

6:                                                ; preds = %2
  %7 = getelementptr i8, ptr %0, i64 %1
  %8 = getelementptr i8, ptr %7, i64 -1
  %9 = load i8, ptr %8, align 1, !tbaa !19
  %10 = icmp eq i8 %9, 41
  br i1 %10, label %11, label %.critedge, !prof !119

.critedge:                                        ; preds = %2, %6
  tail call void @_serverAssert(ptr noundef nonnull @.str.60, ptr noundef nonnull @.str.22, i32 noundef 974) #25
  tail call void @abort() #27
  unreachable

11:                                               ; preds = %6
  %12 = tail call noalias dereferenceable_or_null(168) ptr @zmalloc(i64 noundef 168) #26
  %13 = load i32, ptr getelementptr inbounds nuw (i8, ptr @server, i64 8104), align 8, !tbaa !34
  store i32 %13, ptr %12, align 8, !tbaa !61
  %14 = tail call ptr @listCreate() #25
  %15 = getelementptr inbounds nuw i8, ptr %12, i64 144
  store ptr %14, ptr %15, align 8, !tbaa !64
  %16 = tail call ptr @listCreate() #25
  %17 = getelementptr inbounds nuw i8, ptr %12, i64 152
  store ptr %16, ptr %17, align 8, !tbaa !65
  %18 = getelementptr inbounds nuw i8, ptr %12, i64 136
  store ptr null, ptr %18, align 8, !tbaa !66
  %19 = tail call ptr @sdsempty() #25
  %20 = getelementptr inbounds nuw i8, ptr %12, i64 160
  store ptr %19, ptr %20, align 8, !tbaa !67
  %21 = getelementptr inbounds nuw i8, ptr %14, i64 32
  store ptr @ACLListMatchKeyPattern, ptr %21, align 8, !tbaa !68
  %22 = getelementptr inbounds nuw i8, ptr %14, i64 24
  store ptr @ACLListFreeKeyPattern, ptr %22, align 8, !tbaa !71
  %23 = getelementptr inbounds nuw i8, ptr %14, i64 16
  store ptr @ACLListDupKeyPattern, ptr %23, align 8, !tbaa !72
  %24 = getelementptr inbounds nuw i8, ptr %16, i64 32
  store ptr @ACLListMatchSds, ptr %24, align 8, !tbaa !68
  %25 = getelementptr inbounds nuw i8, ptr %16, i64 24
  store ptr @ACLListFreeSds, ptr %25, align 8, !tbaa !71
  %26 = getelementptr inbounds nuw i8, ptr %16, i64 16
  store ptr @ACLListDupSds, ptr %26, align 8, !tbaa !72
  %27 = getelementptr inbounds nuw i8, ptr %12, i64 8
  tail call void @llvm.memset.p0.i64(ptr noundef nonnull align 8 dereferenceable(128) %27, i8 0, i64 128, i1 false)
  call void @llvm.lifetime.start.p0(i64 4, ptr nonnull %3) #25
  store i32 0, ptr %3, align 4, !tbaa !102
  %28 = getelementptr inbounds nuw i8, ptr %0, i64 1
  %29 = add i64 %1, -2
  %30 = tail call ptr @sdsnewlen(ptr noundef nonnull %28, i64 noundef %29) #25
  %31 = call ptr @sdssplitargs(ptr noundef %30, ptr noundef nonnull %3) #25
  %32 = load i32, ptr %3, align 4, !tbaa !102
  %33 = icmp sgt i32 %32, 0
  br i1 %33, label %.lr.ph, label %.loopexit

34:                                               ; preds = %sdslen.exit
  %indvars.iv.next = add nuw nsw i64 %indvars.iv, 1
  %35 = load i32, ptr %3, align 4, !tbaa !102
  %36 = sext i32 %35 to i64
  %37 = icmp slt i64 %indvars.iv.next, %36
  br i1 %37, label %.lr.ph, label %.loopexit, !llvm.loop !140

.lr.ph:                                           ; preds = %11, %34
  %indvars.iv = phi i64 [ %indvars.iv.next, %34 ], [ 0, %11 ]
  %38 = getelementptr inbounds nuw ptr, ptr %31, i64 %indvars.iv
  %39 = load ptr, ptr %38, align 8, !tbaa !29
  %40 = getelementptr inbounds i8, ptr %39, i64 -1
  %41 = load i8, ptr %40, align 1, !tbaa !19
  %42 = zext i8 %41 to i32
  %43 = and i32 %42, 7
  switch i32 %43, label %sdslen.exit [
    i32 0, label %44
    i32 1, label %47
    i32 2, label %51
    i32 3, label %55
    i32 4, label %59
  ]

44:                                               ; preds = %.lr.ph
  %45 = lshr i32 %42, 3
  %46 = zext nneg i32 %45 to i64
  br label %sdslen.exit

47:                                               ; preds = %.lr.ph
  %48 = getelementptr inbounds i8, ptr %39, i64 -3
  %49 = load i8, ptr %48, align 1, !tbaa !19
  %50 = zext i8 %49 to i64
  br label %sdslen.exit

51:                                               ; preds = %.lr.ph
  %52 = getelementptr inbounds i8, ptr %39, i64 -5
  %53 = load i16, ptr %52, align 1, !tbaa !26
  %54 = zext i16 %53 to i64
  br label %sdslen.exit

55:                                               ; preds = %.lr.ph
  %56 = getelementptr inbounds i8, ptr %39, i64 -9
  %57 = load i32, ptr %56, align 1, !tbaa !102
  %58 = zext i32 %57 to i64
  br label %sdslen.exit

59:                                               ; preds = %.lr.ph
  %60 = getelementptr inbounds i8, ptr %39, i64 -17
  %61 = load i64, ptr %60, align 1, !tbaa !5
  br label %sdslen.exit

sdslen.exit:                                      ; preds = %.lr.ph, %44, %47, %51, %55, %59
  %.0.i = phi i64 [ %61, %59 ], [ %58, %55 ], [ %54, %51 ], [ %50, %47 ], [ %46, %44 ], [ 0, %.lr.ph ]
  %62 = call i32 @ACLSetSelector(ptr noundef nonnull %12, ptr noundef nonnull %39, i64 noundef %.0.i)
  %63 = icmp eq i32 %62, -1
  br i1 %63, label %64, label %34

64:                                               ; preds = %sdslen.exit
  call void @ACLFreeSelector(ptr noundef nonnull %12)
  %.pre = load i32, ptr %3, align 4, !tbaa !102
  br label %.loopexit

.loopexit:                                        ; preds = %34, %11, %64
  %65 = phi i32 [ %.pre, %64 ], [ %32, %11 ], [ %35, %34 ]
  %.020 = phi ptr [ null, %64 ], [ %12, %11 ], [ %12, %34 ]
  call void @sdsfreesplitres(ptr noundef %31, i32 noundef %65) #25
  call void @sdsfree(ptr noundef %30) #25
  call void @llvm.lifetime.end.p0(i64 4, ptr nonnull %3) #25
  ret ptr %.020
}